(dp1
S'N99'
p2
I47
sS'U8'
p3
I60
sS'F49'
p4
I29
sS'N93'
p5
I45
sS'N91'
p6
I44
sS'U1'
p7
I56
sS'N94'
p8
I46
sS'U2'
p9
I57
sS'X-4'
p10
I62
sS'X9'
p11
I71
sS'X-6'
p12
I63
sS'X-1'
p13
I61
sS'C93'
p14
I19
sS'C92'
p15
I18
sS'C91'
p16
I17
sS'C97'
p17
I23
sS'C96'
p18
I22
sS'C95'
p19
I21
sS'C94'
p20
I20
sS'X8'
p21
I70
sS'N7'
p22
I42
sS'A1'
p23
I0
sS'A3'
p24
I2
sS'C8'
p25
I16
sS'A5'
p26
I5
sS'A4'
p27
I3
sS'A7'
p28
I6
sS'U4'
p29
I58
sS'C3'
p30
I11
sS'C2'
p31
I10
sS'C1'
p32
I9
sS'C0'
p33
I8
sS'C7'
p34
I15
sS'A2'
p35
I1
sS'C5'
p36
I13
sS'C4'
p37
I12
sS'P2'
p38
I49
sS'P3'
p39
I50
sS'X1'
p40
I64
sS'P1'
p41
I48
sS'P6'
p42
I53
sS'P7'
p43
I54
sS'P4'
p44
I51
sS'P5'
p45
I52
sS'P9'
p46
I55
sS'X3'
p47
I66
sS'F59'
p48
I31
sS'N8'
p49
I43
sS'X2'
p50
I65
sS'A8'
p51
I7
sS'N0'
p52
I35
sS'N1'
p53
I36
sS'N2'
p54
I37
sS'N3'
p55
I38
sS'N4'
p56
I39
sS'N5'
p57
I40
sS'N6'
p58
I41
sS'A49'
p59
I4
sS'F0'
p60
I24
sS'F1'
p61
I25
sS'F2'
p62
I26
sS'F3'
p63
I27
sS'F4'
p64
I28
sS'F5'
p65
I30
sS'F6'
p66
I32
sS'F7'
p67
I33
sS'F8'
p68
I34
sS'U6'
p69
I59
sS'X7'
p70
I69
sS'C6'
p71
I14
sS'X4'
p72
I67
sS'X5'
p73
I68
s.